ccopy_reg
_reconstructor
p0
(cdavitpy.models.raydarn.rt
RtRun
p1
c__builtin__
object
p2
Ntp3
Rp4
(dp5
S'davitpy_path'
p6
S'/home/w2naf/davitpy'
p7
sS'beam'
p8
I7
sS'dTime'
p9
F0.5
sS'nhops'
p10
I1
sS'fExt'
p11
S'0'
p12
sS'site'
p13
g0
(cdavitpy.pydarn.radar.radStruct
site
p14
g2
Ntp15
Rp16
(dp17
S'maxgate'
p18
I110
sS'geolat'
p19
F38.859
sS'interfer'
p20
(lp21
F0.0
aF-80.0
aF0.0
asS'vdir'
p22
I1
sS'atten'
p23
F0.0
sS'tdiff'
p24
F0.0
sS'boresite'
p25
F45.0
sS'bmsep'
p26
F3.24
sS'recrise'
p27
F0.0
sS'maxbeam'
p28
I22
sS'tval'
p29
cdatetime
datetime
p30
(S'\x0b\xb8\x01\x01\x00\x00\x00\x00\x00\x00'
p31
tp32
Rp33
sS'phidiff'
p34
F1.0
sS'alt'
p35
F673.6
sS'geolon'
p36
F-99.389
sS'id'
p37
I205
sS'maxatten'
p38
F0.0
sbsS'azim'
p39
(F33.66
F33.66
I1
tp40
sS'radar'
p41
g0
(cdavitpy.pydarn.radar.radStruct
radar
p42
g2
Ntp43
Rp44
(dp45
S'status'
p46
I1
sS'code'
p47
(lp48
Vfhe
p49
aVz
p50
asS'name'
p51
VFort Hays East
p52
sS'cnum'
p53
I2
sS'sites'
p54
(lp55
g0
(g14
g2
Ntp56
Rp57
(dp58
g18
I110
sg19
F38.859
sg20
(lp59
F0.0
aF-80.0
aF0.0
asg22
I1
sg23
F0.0
sg24
F0.0
sg25
F45.0
sg26
F3.24
sg27
F0.0
sg28
I16
sg29
g30
(S'\x07\xda\x06\x1b\x0f\x00\x00\x00\x00\x00'
p60
tp61
Rp62
sg34
F1.0
sg35
F673.6
sg36
F-99.389
sg37
I205
sg38
F0.0
sbag16
asS'edTime'
p63
g30
(S'\t\xc4\x01\x01\x00\x00\x00\x00\x00\x00'
p64
tp65
Rp66
sS'hdwfname'
p67
Vhdw.dat.fhe
p68
sS'stTime'
p69
g30
(S'\x07\xd9\x0b\x14\x00\x00\x00\x00\x00\x00'
p70
tp71
Rp72
sS'operator'
p73
VMSI Consortium
p74
sS'snum'
p75
I2
sg37
I205
sbsS'elev'
p76
(I5
I60
F0.1
tp77
sS'time'
p78
(lp79
g30
(S'\x07\xdc\x0c\x15\x11\x00\x00\x00\x00\x00'
p80
tp81
Rp82
ag82
asS'edens_file'
p83
S'output/raytrace/fhe_20121221_paper2_14500kHz_lambda451km/edens_profl_dats/20121221_1700UT_fhe_07.dat'
p84
sS'freq'
p85
F14.5
sS'nmf2'
p86
I0
sS'hmf2'
p87
I0
sS'outDir'
p88
S'/data/mstid/statistics/music_scripts/output/raytrace/fhe_20121221_paper2_14500kHz_lambda451km/rt_data/20121221_1700UT_fhe_07/'
p89
sb.